(dp0
(S'new Bar'
p1
I0
I17
tp2
I20
s(g1
I3
I7
tp3
I6
s(S'myBar'
p4
I1
I16
tp5
I20
s(S'this.bar'
p6
I1
I9
tp7
I11
s(S"Sister Louisa's Church"
p8
I1
I13
tp9
I20
s(S'Foo Bar'
p10
I4
I5
tp11
I0
s(S'Ten Forward'
p12
I3
I11
tp13
I14
s(S"Taffey's Snake Pit Bar"
p14
I0
I8
tp15
I15
s(S'Trees'
p16
I0
I10
tp17
I24
s(g1
I1
I2
tp18
I8
s(g10
I0
I10
tp19
I17
s(g4
I0
I1
tp20
I3
s(S'Dada'
p21
I1
I13
tp22
I28
s(g14
I2
I19
tp23
I37
s(g12
I0
I11
tp24
I17
s(g12
I0
I7
tp25
I10
s(g21
I4
I0
tp26
I0
s(g10
I1
I5
tp27
I10
s(g16
I2
I12
tp28
I27
s(g21
I3
I20
tp29
I8
s(g1
I2
I0
tp30
I2
s(S'Mos Eisley Cantina'
p31
I4
I11
tp32
I0
s(g6
I2
I0
tp33
I1
s(g6
I4
I19
tp34
I0
s(g1
I4
I12
tp35
I0
s(g8
I0
I6
tp36
I5
s(g10
I2
I20
tp37
I37
s(g31
I3
I4
tp38
I0
s(g16
I3
I3
tp39
I5
s(g12
I3
I3
tp40
I3
s(g1
I3
I15
tp41
I14
s(g21
I3
I7
tp42
I2
s(g21
I0
I18
tp43
I22
s(g4
I2
I18
tp44
I41
s(g10
I4
I13
tp45
I0
s(g31
I1
I15
tp46
I26
s(g14
I0
I0
tp47
I2
s(g16
I0
I18
tp48
I28
s(g12
I1
I12
tp49
I21
s(g1
I1
I10
tp50
I25
s(g12
I2
I15
tp51
I26
s(g10
I0
I2
tp52
I6
s(g14
I4
I19
tp53
I0
s(g21
I1
I5
tp54
I10
s(g4
I1
I6
tp55
I9
s(g14
I2
I11
tp56
I29
s(g4
I4
I6
tp57
I0
s(g21
I4
I8
tp58
I0
s(g10
I1
I13
tp59
I23
s(g31
I2
I3
tp60
I12
s(g16
I2
I4
tp61
I7
s(g21
I3
I12
tp62
I6
s(g1
I3
I16
tp63
I14
s(g12
I0
I17
tp64
I23
s(g31
I4
I3
tp65
I0
s(g16
I4
I0
tp66
I0
s(g6
I2
I8
tp67
I31
s(g6
I4
I9
tp68
I0
s(g21
I3
I13
tp69
I6
s(g10
I3
I4
tp70
I2
s(g14
I1
I15
tp71
I28
s(g16
I3
I11
tp72
I11
s(g1
I0
I1
tp73
I2
s(g6
I0
I3
tp74
I1
s(g12
I4
I11
tp75
I0
s(g21
I0
I10
tp76
I13
s(g31
I1
I7
tp77
I15
s(g16
I1
I6
tp78
I17
s(g12
I1
I4
tp79
I8
s(g6
I1
I17
tp80
I28
s(g8
I2
I8
tp81
I27
s(g8
I2
I6
tp82
I17
s(g14
I4
I11
tp83
I0
s(g8
I4
I4
tp84
I0
s(g8
I0
I2
tp85
I2
s(g14
I2
I3
tp86
I5
s(g6
I3
I7
tp87
I5
s(g12
I2
I17
tp88
I30
s(g4
I4
I14
tp89
I0
s(g8
I3
I7
tp90
I5
s(g31
I2
I11
tp91
I31
s(g21
I3
I4
tp92
I1
s(g12
I4
I2
tp93
I0
s(g1
I2
I16
tp94
I32
s(g16
I4
I8
tp95
I0
s(g8
I1
I2
tp96
I3
s(g10
I3
I12
tp97
I6
s(g31
I0
I12
tp98
I19
s(g31
I3
I20
tp99
I5
s(g16
I3
I19
tp100
I15
s(g1
I1
I19
tp101
I31
s(g1
I0
I9
tp102
I15
s(g6
I1
I6
tp103
I8
s(g4
I1
I12
tp104
I20
s(g4
I0
I16
tp105
I20
s(g21
I0
I2
tp106
I4
s(g14
I3
I8
tp107
I6
s(g16
I1
I14
tp108
I26
s(g12
I3
I19
tp109
I16
s(g12
I4
I8
tp110
I0
s(g12
I4
I17
tp111
I0
s(g14
I4
I3
tp112
I0
s(g21
I2
I15
tp113
I33
s(g8
I4
I12
tp114
I0
s(g1
I2
I15
tp115
I32
s(g12
I1
I2
tp116
I5
s(g6
I3
I15
tp117
I7
s(g8
I3
I15
tp118
I9
s(g10
I2
I7
tp119
I16
s(g31
I2
I19
tp120
I43
s(g4
I1
I1
tp121
I3
s(g1
I3
I0
tp122
I0
s(g31
I4
I19
tp123
I0
s(g16
I4
I16
tp124
I0
s(g6
I3
I2
tp125
I2
s(g8
I1
I10
tp126
I13
s(g4
I1
I7
tp127
I13
s(g10
I3
I20
tp128
I8
s(g31
I0
I4
tp129
I7
s(g16
I0
I5
tp130
I12
s(g12
I2
I5
tp131
I9
s(g10
I0
I17
tp132
I27
s(g4
I0
I8
tp133
I8
s(g4
I2
I14
tp134
I34
s(g14
I3
I0
tp135
I0
s(g6
I4
I6
tp136
I0
s(g12
I0
I12
tp137
I19
s(g12
I1
I20
tp138
I27
s(g21
I4
I7
tp139
I0
s(g6
I2
I19
tp140
I47
s(g16
I2
I19
tp141
I29
s(g21
I2
I7
tp142
I18
s(g8
I4
I20
tp143
I0
s(g1
I2
I7
tp144
I16
s(g14
I0
I4
tp145
I7
s(g1
I4
I7
tp146
I0
s(g8
I0
I1
tp147
I2
s(g10
I2
I15
tp148
I34
s(g31
I3
I13
tp149
I4
s(g4
I3
I2
tp150
I1
s(g1
I0
I16
tp151
I19
s(g1
I3
I8
tp152
I8
s(g6
I0
I16
tp153
I17
s(g6
I1
I8
tp154
I11
s(g6
I2
I7
tp155
I29
s(g8
I1
I18
tp156
I23
s(g10
I4
I4
tp157
I0
s(g14
I0
I9
tp158
I15
s(g16
I0
I13
tp159
I26
s(g1
I1
I3
tp160
I11
s(g10
I0
I9
tp161
I17
s(g4
I0
I0
tp162
I1
s(g21
I1
I14
tp163
I29
s(g14
I2
I16
tp164
I33
s(g6
I4
I14
tp165
I0
s(g12
I0
I4
tp166
I5
s(g4
I3
I8
tp167
I3
s(g21
I4
I15
tp168
I0
s(g10
I1
I6
tp169
I11
s(g16
I2
I11
tp170
I25
s(g31
I4
I10
tp171
I0
s(g6
I2
I1
tp172
I8
s(g1
I4
I15
tp173
I0
s(g8
I0
I9
tp174
I14
s(g14
I3
I6
tp175
I4
s(g31
I3
I5
tp176
I1
s(g16
I3
I4
tp177
I5
s(g12
I3
I2
tp178
I1
s(g21
I0
I17
tp179
I21
s(g10
I4
I12
tp180
I0
s(g31
I1
I12
tp181
I25
s(g14
I0
I1
tp182
I2
s(g12
I1
I15
tp183
I25
s(g1
I1
I11
tp184
I26
s(g8
I2
I15
tp185
I40
s(g12
I4
I9
tp186
I0
s(g10
I0
I1
tp187
I6
s(g4
I1
I8
tp188
I13
s(g14
I4
I20
tp189
I0
s(g21
I1
I6
tp190
I11
s(g6
I4
I16
tp191
I0
s(g14
I2
I8
tp192
I22
s(g4
I4
I5
tp193
I0
s(g8
I3
I0
tp194
I0
s(g10
I1
I14
tp195
I24
s(g31
I2
I2
tp196
I10
s(g16
I2
I3
tp197
I3
s(g31
I3
I17
tp198
I5
s(g1
I3
I17
tp199
I15
s(g31
I4
I2
tp200
I0
s(g16
I4
I3
tp201
I0
s(g6
I2
I9
tp202
I34
s(g8
I0
I17
tp203
I20
s(g10
I3
I5
tp204
I2
s(g14
I1
I14
tp205
I27
s(g16
I3
I12
tp206
I11
s(g1
I0
I0
tp207
I2
s(g6
I0
I0
tp208
I0
s(g21
I0
I9
tp209
I12
s(g14
I0
I19
tp210
I23
s(g31
I1
I4
tp211
I10
s(g16
I1
I7
tp212
I21
s(g12
I1
I7
tp213
I14
s(g8
I2
I7
tp214
I24
s(g14
I4
I12
tp215
I0
s(g8
I4
I7
tp216
I0
s(g12
I0
I20
tp217
I26
s(g4
I2
I10
tp218
I24
s(g14
I2
I0
tp219
I1
s(g6
I3
I6
tp220
I5
s(g4
I4
I13
tp221
I0
s(g8
I3
I8
tp222
I5
s(g12
I2
I7
tp223
I13
s(g31
I2
I10
tp224
I28
s(g21
I3
I5
tp225
I2
s(g12
I4
I3
tp226
I0
s(g16
I4
I11
tp227
I0
s(g8
I1
I3
tp228
I3
s(g10
I3
I13
tp229
I7
s(g31
I0
I15
tp230
I21
s(g14
I1
I6
tp231
I9
s(g16
I3
I20
tp232
I15
s(g4
I3
I19
tp233
I12
s(g1
I1
I16
tp234
I31
s(g1
I0
I8
tp235
I12
s(g6
I0
I8
tp236
I6
s(g6
I1
I20
tp237
I28
s(g21
I0
I1
tp238
I4
s(g14
I3
I11
tp239
I7
s(g16
I1
I15
tp240
I26
s(g8
I2
I16
tp241
I41
s(g14
I4
I4
tp242
I0
s(g21
I2
I14
tp243
I33
s(g8
I4
I15
tp244
I0
s(g1
I2
I14
tp245
I30
s(g6
I2
I18
tp246
I46
s(g6
I3
I14
tp247
I7
s(g8
I3
I16
tp248
I9
s(g10
I2
I6
tp249
I15
s(g31
I2
I18
tp250
I41
s(g6
I1
I10
tp251
I13
s(g1
I3
I1
tp252
I0
s(g31
I4
I18
tp253
I0
s(g16
I4
I19
tp254
I0
s(g8
I1
I11
tp255
I16
s(g10
I4
I3
tp256
I0
s(g31
I0
I7
tp257
I11
s(g16
I0
I4
tp258
I10
s(g12
I2
I6
tp259
I11
s(g6
I4
I4
tp260
I0
s(g10
I0
I16
tp261
I26
s(g12
I4
I14
tp262
I0
s(g4
I0
I15
tp263
I18
s(g6
I4
I17
tp264
I0
s(g14
I3
I3
tp265
I2
s(g12
I0
I10
tp266
I15
s(g4
I4
I20
tp267
I0
s(g21
I4
I6
tp268
I0
s(g6
I1
I14
tp269
I25
s(g16
I2
I18
tp270
I29
s(g21
I2
I6
tp271
I16
s(g1
I2
I6
tp272
I11
s(g31
I4
I13
tp273
I0
s(g1
I4
I6
tp274
I0
s(g8
I0
I0
tp275
I1
s(g10
I2
I14
tp276
I33
s(g31
I3
I14
tp277
I4
s(g4
I3
I3
tp278
I1
s(g1
I0
I19
tp279
I20
s(g1
I3
I9
tp280
I11
s(g6
I0
I17
tp281
I18
s(g6
I1
I11
tp282
I14
s(g4
I2
I19
tp283
I42
s(g10
I4
I11
tp284
I0
s(g14
I0
I10
tp285
I15
s(g16
I0
I12
tp286
I26
s(g10
I4
I6
tp287
I0
s(g1
I1
I0
tp288
I1
s(g12
I2
I14
tp289
I25
s(g10
I0
I8
tp290
I15
s(g4
I0
I7
tp291
I7
s(g21
I1
I15
tp292
I30
s(g14
I2
I17
tp293
I35
s(g6
I4
I15
tp294
I0
s(g12
I0
I5
tp295
I7
s(g21
I4
I14
tp296
I0
s(g10
I1
I7
tp297
I15
s(g16
I2
I10
tp298
I24
s(g21
I3
I18
tp299
I7
s(g12
I0
I16
tp300
I23
s(g31
I4
I5
tp301
I0
s(g4
I2
I6
tp302
I14
s(g6
I2
I2
tp303
I11
s(g1
I4
I14
tp304
I0
s(g8
I0
I8
tp305
I8
s(g10
I3
I2
tp306
I1
s(g31
I3
I6
tp307
I2
s(g16
I3
I5
tp308
I5
s(g14
I3
I20
tp309
I9
s(g12
I3
I1
tp310
I1
s(g12
I4
I10
tp311
I0
s(g21
I0
I16
tp312
I19
s(g10
I4
I19
tp313
I0
s(g31
I1
I13
tp314
I26
s(g14
I0
I2
tp315
I4
s(g16
I0
I20
tp316
I29
s(g12
I1
I14
tp317
I22
s(g1
I1
I8
tp318
I20
s(g8
I2
I14
tp319
I38
s(g10
I0
I0
tp320
I4
s(g4
I1
I17
tp321
I22
s(g21
I1
I7
tp322
I14
s(g8
I3
I13
tp323
I9
s(g6
I4
I3
tp324
I0
s(g14
I2
I9
tp325
I22
s(g12
I2
I16
tp326
I28
s(g4
I4
I4
tp327
I0
s(g8
I3
I1
tp328
I0
s(g10
I1
I15
tp329
I24
s(g31
I2
I1
tp330
I6
s(g16
I2
I2
tp331
I3
s(g21
I3
I10
tp332
I5
s(g1
I3
I18
tp333
I15
s(g16
I4
I2
tp334
I0
s(g6
I2
I10
tp335
I37
s(g8
I0
I16
tp336
I20
s(g10
I3
I10
tp337
I4
s(g14
I1
I13
tp338
I25
s(g16
I3
I13
tp339
I14
s(g1
I0
I3
tp340
I7
s(g8
I0
I14
tp341
I20
s(g12
I3
I16
tp342
I16
s(g21
I0
I8
tp343
I11
s(g31
I1
I5
tp344
I11
s(g16
I1
I4
tp345
I11
s(g12
I1
I6
tp346
I13
s(g12
I4
I16
tp347
I0
s(g14
I4
I13
tp348
I0
s(g21
I2
I17
tp349
I35
s(g8
I4
I6
tp350
I0
s(g12
I3
I17
tp351
I16
s(g14
I2
I1
tp352
I3
s(g6
I3
I5
tp353
I4
s(g1
I4
I17
tp354
I0
s(g4
I4
I12
tp355
I0
s(g8
I3
I9
tp356
I7
s(g10
I2
I1
tp357
I1
s(g12
I1
I18
tp358
I26
s(g31
I2
I9
tp359
I24
s(g4
I1
I0
tp360
I2
s(g21
I3
I2
tp361
I1
s(g12
I4
I0
tp362
I0
s(g6
I1
I16
tp363
I27
s(g16
I4
I10
tp364
I0
s(g8
I1
I0
tp365
I1
s(g10
I3
I18
tp366
I8
s(g31
I0
I14
tp367
I21
s(g14
I1
I5
tp368
I5
s(g1
I1
I17
tp369
I31
s(g1
I0
I11
tp370
I18
s(g6
I0
I9
tp371
I7
s(g21
I0
I0
tp372
I1
s(g4
I2
I15
tp373
I36
s(g14
I3
I10
tp374
I7
s(g16
I1
I12
tp375
I24
s(g12
I2
I10
tp376
I18
s(g14
I4
I5
tp377
I0
s(g21
I2
I9
tp378
I20
s(g8
I4
I14
tp379
I0
s(g1
I2
I13
tp380
I26
s(g8
I4
I18
tp381
I0
s(g6
I3
I13
tp382
I7
s(g8
I3
I17
tp383
I9
s(g10
I2
I9
tp384
I26
s(g31
I2
I17
tp385
I41
s(g1
I3
I2
tp386
I0
s(g16
I4
I18
tp387
I0
s(g8
I1
I8
tp388
I11
s(g10
I4
I2
tp389
I0
s(g31
I0
I6
tp390
I9
s(g16
I0
I7
tp391
I14
s(g14
I3
I16
tp392
I9
s(g10
I0
I15
tp393
I26
s(g4
I0
I14
tp394
I18
s(g21
I1
I16
tp395
I30
s(g14
I3
I2
tp396
I1
s(g16
I1
I20
tp397
I27
s(g6
I4
I0
tp398
I0
s(g4
I4
I19
tp399
I0
s(g4
I3
I11
tp400
I8
s(g21
I4
I5
tp401
I0
s(g10
I1
I0
tp402
I2
s(g16
I2
I17
tp403
I29
s(g21
I2
I1
tp404
I4
s(g1
I2
I5
tp405
I10
s(g31
I4
I12
tp406
I0
s(g8
I1
I7
tp407
I9
s(g1
I4
I1
tp408
I0
s(g8
I0
I3
tp409
I4
s(g14
I3
I7
tp410
I5
s(g10
I2
I17
tp411
I36
s(g31
I3
I15
tp412
I4
s(g4
I3
I0
tp413
I0
s(g1
I0
I18
tp414
I20
s(g1
I3
I10
tp415
I12
s(g14
I1
I16
tp416
I28
s(g8
I1
I16
tp417
I22
s(g10
I4
I10
tp418
I0
s(g31
I1
I10
tp419
I21
s(g14
I0
I11
tp420
I18
s(g16
I0
I15
tp421
I26
s(g1
I1
I1
tp422
I5
s(g6
I1
I3
tp423
I6
s(g10
I0
I7
tp424
I12
s(g4
I1
I15
tp425
I20
s(g4
I0
I6
tp426
I7
s(g21
I1
I8
tp427
I18
s(g14
I2
I14
tp428
I33
s(g6
I3
I20
tp429
I7
s(g6
I4
I12
tp430
I0
s(g12
I0
I2
tp431
I2
s(g21
I4
I13
tp432
I0
s(g12
I4
I20
tp433
I0
s(g10
I1
I8
tp434
I18
s(g16
I2
I9
tp435
I21
s(g31
I3
I16
tp436
I4
s(g31
I4
I4
tp437
I0
s(g16
I4
I5
tp438
I0
s(g6
I2
I3
tp439
I16
s(g1
I4
I9
tp440
I0
s(g8
I0
I11
tp441
I17
s(g10
I3
I3
tp442
I2
s(g31
I3
I7
tp443
I2
s(g16
I3
I6
tp444
I6
s(g12
I3
I0
tp445
I1
s(g10
I3
I19
tp446
I8
s(g6
I0
I6
tp447
I4
s(g12
I0
I18
tp448
I25
s(g14
I0
I18
tp449
I22
s(g31
I1
I2
tp450
I6
s(g14
I0
I3
tp451
I7
s(g12
I1
I9
tp452
I16
s(g1
I1
I9
tp453
I22
s(g8
I2
I13
tp454
I35
s(g4
I1
I18
tp455
I22
s(g21
I1
I0
tp456
I2
s(g6
I0
I15
tp457
I17
s(g4
I2
I11
tp458
I29
s(g14
I2
I6
tp459
I18
s(g4
I4
I3
tp460
I0
s(g21
I3
I19
tp461
I7
s(g8
I3
I2
tp462
I1
s(g10
I1
I16
tp463
I24
s(g31
I2
I0
tp464
I5
s(g16
I2
I1
tp465
I3
s(g21
I3
I11
tp466
I5
s(g12
I3
I9
tp467
I11
s(g1
I3
I19
tp468
I15
s(g16
I4
I13
tp469
I0
s(g14
I0
I7
tp470
I12
s(g8
I0
I19
tp471
I21
s(g10
I3
I11
tp472
I6
s(g31
I0
I9
tp473
I16
s(g14
I1
I12
tp474
I25
s(g16
I3
I14
tp475
I14
s(g4
I3
I18
tp476
I12
s(g1
I0
I2
tp477
I6
s(g6
I4
I7
tp478
I0
s(g6
I0
I14
tp479
I15
s(g12
I3
I8
tp480
I10
s(g21
I0
I15
tp481
I18
s(g14
I3
I13
tp482
I8
s(g16
I1
I5
tp483
I14
s(g12
I1
I1
tp484
I4
s(g21
I4
I20
tp485
I0
s(g12
I3
I10
tp486
I11
s(g14
I4
I14
tp487
I0
s(g21
I2
I16
tp488
I34
s(g8
I4
I1
tp489
I0
s(g6
I2
I20
tp490
I47
s(g6
I3
I4
tp491
I4
s(g1
I4
I16
tp492
I0
s(g4
I4
I11
tp493
I0
s(g8
I3
I10
tp494
I7
s(g10
I2
I0
tp495
I1
s(g31
I2
I8
tp496
I20
s(g21
I3
I3
tp497
I1
s(g12
I4
I1
tp498
I0
s(g31
I4
I20
tp499
I0
s(g6
I1
I5
tp500
I6
s(g8
I1
I1
tp501
I3
s(g31
I1
I20
tp502
I30
s(g31
I0
I1
tp503
I3
s(g14
I1
I4
tp504
I4
s(g12
I2
I8
tp505
I17
s(g1
I0
I10
tp506
I16
s(g14
I1
I20
tp507
I30
s(g21
I0
I7
tp508
I11
s(g31
I1
I18
tp509
I30
s(g16
I1
I13
tp510
I24
s(g4
I1
I11
tp511
I19
s(g14
I4
I6
tp512
I0
s(g21
I2
I8
tp513
I19
s(g8
I4
I9
tp514
I0
s(g1
I2
I12
tp515
I23
s(g6
I3
I12
tp516
I6
s(g21
I3
I1
tp517
I1
s(g8
I3
I18
tp518
I9
s(g10
I2
I8
tp519
I19
s(g31
I3
I8
tp520
I2
s(g31
I2
I16
tp521
I40
s(g14
I1
I7
tp522
I10
s(g1
I3
I3
tp523
I1
s(g6
I1
I13
tp524
I21
s(g4
I2
I16
tp525
I39
s(g10
I4
I1
tp526
I0
s(g12
I0
I19
tp527
I25
s(g14
I0
I12
tp528
I20
s(g16
I0
I6
tp529
I12
s(g12
I2
I0
tp530
I0
s(g12
I2
I13
tp531
I24
s(g10
I0
I14
tp532
I25
s(g4
I0
I13
tp533
I18
s(g21
I1
I17
tp534
I31
s(g6
I3
I19
tp535
I7
s(g6
I4
I5
tp536
I0
s(g4
I4
I18
tp537
I0
s(g12
I1
I17
tp538
I26
s(g21
I4
I4
tp539
I0
s(g10
I1
I1
tp540
I4
s(g12
I3
I18
tp541
I16
s(g16
I2
I16
tp542
I29
s(g21
I2
I0
tp543
I2
s(g8
I4
I17
tp544
I0
s(g1
I2
I4
tp545
I9
s(g31
I4
I15
tp546
I0
s(g4
I2
I7
tp547
I17
s(g6
I2
I4
tp548
I18
s(g1
I4
I0
tp549
I0
s(g10
I4
I18
tp550
I0
s(g10
I2
I16
tp551
I35
s(g31
I3
I0
tp552
I0
s(g4
I3
I1
tp553
I0
s(g12
I3
I15
tp554
I15
s(g1
I3
I11
tp555
I12
s(g8
I1
I17
tp556
I23
s(g10
I4
I9
tp557
I0
s(g31
I1
I11
tp558
I24
s(g31
I0
I17
tp559
I21
s(g16
I0
I14
tp560
I26
s(g4
I3
I14
tp561
I10
s(g1
I1
I6
tp562
I17
s(g8
I2
I20
tp563
I43
s(g10
I0
I6
tp564
I11
s(g8
I2
I5
tp565
I16
s(g4
I0
I5
tp566
I5
s(g21
I1
I9
tp567
I19
s(g14
I2
I15
tp568
I33
s(g6
I4
I13
tp569
I0
s(g12
I0
I3
tp570
I4
s(g21
I4
I12
tp571
I0
s(g10
I1
I9
tp572
I19
s(g31
I2
I7
tp573
I18
s(g16
I2
I8
tp574
I18
s(g21
I3
I16
tp575
I7
s(g4
I2
I1
tp576
I7
s(g12
I0
I13
tp577
I21
s(g31
I4
I7
tp578
I0
s(g16
I4
I4
tp579
I0
s(g6
I2
I12
tp580
I40
s(g1
I4
I8
tp581
I0
s(g8
I0
I10
tp582
I16
s(g10
I3
I0
tp583
I0
s(g14
I1
I11
tp584
I22
s(g16
I3
I7
tp585
I7
s(g12
I3
I7
tp586
I7
s(g6
I1
I4
tp587
I6
s(g6
I0
I7
tp588
I4
s(g12
I2
I20
tp589
I31
s(g10
I4
I17
tp590
I0
s(g31
I1
I3
tp591
I8
s(g16
I1
I2
tp592
I5
s(g8
I2
I0
tp593
I0
s(g12
I1
I8
tp594
I16
s(g1
I1
I14
tp595
I28
s(g12
I4
I19
tp596
I0
s(g4
I1
I19
tp597
I22
s(g21
I1
I1
tp598
I2
s(g14
I2
I7
tp599
I21
s(g6
I3
I3
tp600
I3
s(g4
I4
I16
tp601
I0
s(g4
I4
I2
tp602
I0
s(g8
I3
I3
tp603
I1
s(g10
I1
I17
tp604
I25
s(g31
I2
I15
tp605
I39
s(g16
I2
I0
tp606
I1
s(g21
I3
I8
tp607
I3
s(g1
I3
I20
tp608
I15
s(g1
I2
I20
tp609
I34
s(g16
I4
I12
tp610
I0
s(g8
I0
I18
tp611
I21
s(g10
I3
I8
tp612
I2
s(g31
I0
I8
tp613
I12
s(g14
I1
I3
tp614
I4
s(g16
I3
I15
tp615
I14
s(g1
I0
I5
tp616
I7
s(g6
I0
I11
tp617
I12
s(g6
I1
I18
tp618
I28
s(g21
I0
I14
tp619
I17
s(g4
I2
I12
tp620
I30
s(g14
I3
I12
tp621
I7
s(g16
I1
I10
tp622
I24
s(g12
I1
I0
tp623
I3
s(g21
I4
I19
tp624
I0
s(g12
I2
I9
tp625
I17
s(g14
I4
I15
tp626
I0
s(g21
I2
I19
tp627
I37
s(g8
I4
I0
tp628
I0
s(g6
I3
I11
tp629
I6
s(g1
I4
I19
tp630
I0
s(g4
I4
I10
tp631
I0
s(g6
I2
I13
tp632
I41
s(g8
I3
I11
tp633
I7
s(g10
I2
I3
tp634
I8
s(g14
I1
I19
tp635
I30
s(g21
I3
I0
tp636
I1
s(g12
I4
I6
tp637
I0
s(g16
I4
I20
tp638
I0
s(g8
I1
I6
tp639
I6
s(g10
I3
I16
tp640
I8
s(g31
I0
I0
tp641
I0
s(g16
I0
I1
tp642
I5
s(g14
I3
I17
tp643
I9
s(g1
I0
I13
tp644
I19
s(g4
I0
I20
tp645
I23
s(g8
I2
I4
tp646
I10
s(g21
I0
I6
tp647
I11
s(g31
I1
I19
tp648
I30
s(g16
I1
I18
tp649
I27
s(g4
I3
I10
tp650
I6
s(g14
I4
I7
tp651
I0
s(g21
I2
I11
tp652
I29
s(g8
I4
I8
tp653
I0
s(g1
I2
I11
tp654
I22
s(g4
I2
I0
tp655
I2
s(g12
I2
I19
tp656
I31
s(g14
I3
I4
tp657
I2
s(g10
I2
I11
tp658
I29
s(g31
I3
I9
tp659
I2
s(g4
I3
I6
tp660
I3
s(g6
I4
I2
tp661
I0
s(g1
I3
I4
tp662
I3
s(g6
I0
I20
tp663
I18
s(g14
I1
I17
tp664
I30
s(g6
I4
I18
tp665
I0
s(g8
I1
I14
tp666
I21
s(g10
I4
I0
tp667
I0
s(g14
I0
I13
tp668
I20
s(g16
I0
I9
tp669
I20
s(g12
I2
I1
tp670
I1
s(g12
I2
I12
tp671
I22
s(g10
I0
I13
tp672
I23
s(g4
I1
I14
tp673
I20
s(g6
I1
I0
tp674
I0
s(g4
I0
I12
tp675
I18
s(g21
I1
I18
tp676
I31
s(g14
I2
I20
tp677
I38
s(g6
I3
I18
tp678
I7
s(g6
I4
I10
tp679
I0
s(g4
I4
I17
tp680
I0
s(g12
I1
I16
tp681
I25
s(g21
I4
I3
tp682
I0
s(g10
I1
I2
tp683
I6
s(g16
I2
I15
tp684
I28
s(g21
I2
I3
tp685
I8
s(g8
I4
I16
tp686
I0
s(g1
I2
I3
tp687
I8
s(g31
I4
I14
tp688
I0
s(g6
I2
I5
tp689
I18
s(g1
I4
I3
tp690
I0
s(g8
I0
I5
tp691
I4
s(g10
I2
I19
tp692
I37
s(g31
I3
I1
tp693
I0
s(g16
I3
I0
tp694
I0
s(g4
I1
I3
tp695
I5
s(g1
I0
I20
tp696
I20
s(g1
I3
I12
tp697
I12
s(g14
I0
I17
tp698
I22
s(g31
I1
I8
tp699
I16
s(g31
I0
I16
tp700
I21
s(g16
I0
I17
tp701
I26
s(g1
I1
I7
tp702
I19
s(g8
I2
I19
tp703
I43
s(g10
I0
I5
tp704
I11
s(g14
I4
I16
tp705
I0
s(g4
I0
I4
tp706
I5
s(g21
I1
I10
tp707
I21
s(g8
I1
I19
tp708
I24
s(g4
I2
I8
tp709
I18
s(g14
I2
I12
tp710
I31
s(g12
I0
I0
tp711
I0
s(g12
I3
I14
tp712
I15
s(g21
I4
I11
tp713
I0
s(g10
I1
I10
tp714
I19
s(g31
I2
I6
tp715
I18
s(g16
I2
I7
tp716
I16
s(g21
I3
I17
tp717
I7
s(g31
I4
I6
tp718
I0
s(g16
I4
I7
tp719
I0
s(g14
I0
I6
tp720
I10
s(g1
I4
I11
tp721
I0
s(g8
I0
I13
tp722
I18
s(g10
I3
I1
tp723
I1
s(g14
I1
I10
tp724
I16
s(g16
I3
I8
tp725
I8
s(g12
I3
I6
tp726
I6
s(g6
I0
I4
tp727
I1
s(g10
I4
I16
tp728
I0
s(g31
I1
I0
tp729
I3
s(g16
I1
I3
tp730
I9
s(g8
I3
I19
tp731
I9
s(g12
I1
I11
tp732
I18
s(g1
I1
I15
tp733
I30
s(g8
I2
I11
tp734
I32
s(g8
I2
I18
tp735
I43
s(g14
I4
I8
tp736
I0
s(g21
I1
I2
tp737
I3
s(g14
I2
I4
tp738
I7
s(g4
I2
I3
tp739
I7
s(g4
I1
I20
tp740
I23
s(g4
I4
I1
tp741
I0
s(g8
I3
I4
tp742
I1
s(g10
I1
I18
tp743
I26
s(g31
I2
I14
tp744
I38
s(g21
I3
I9
tp745
I5
s(g12
I4
I15
tp746
I0
s(g1
I2
I19
tp747
I34
s(g16
I4
I15
tp748
I0
s(g10
I3
I9
tp749
I4
s(g31
I0
I11
tp750
I19
s(g14
I1
I2
tp751
I2
s(g16
I3
I16
tp752
I15
s(g1
I0
I4
tp753
I7
s(g6
I0
I12
tp754
I14
s(g4
I0
I19
tp755
I23
s(g21
I0
I13
tp756
I17
s(g14
I3
I15
tp757
I9
s(g16
I1
I11
tp758
I24
s(g12
I1
I3
tp759
I7
s(g21
I4
I18
tp760
I0
s(g8
I2
I3
tp761
I8
s(g6
I1
I12
tp762
I18
s(g6
I1
I19
tp763
I28
s(g4
I1
I10
tp764
I17
s(g14
I4
I0
tp765
I0
s(g21
I2
I18
tp766
I36
s(g8
I4
I3
tp767
I0
s(g6
I3
I10
tp768
I6
s(g1
I4
I18
tp769
I0
s(g4
I4
I9
tp770
I0
s(g8
I3
I12
tp771
I7
s(g10
I2
I2
tp772
I6
s(g4
I3
I15
tp773
I12
s(g31
I3
I19
tp774
I5
s(g6
I2
I17
tp775
I45
s(g12
I4
I7
tp776
I0
s(g6
I1
I7
tp777
I11
s(g4
I2
I17
tp778
I41
s(g10
I3
I17
tp779
I8
s(g31
I0
I3
tp780
I7
s(g16
I0
I0
tp781
I1
s(g14
I3
I19
tp782
I9
s(g1
I1
I20
tp783
I31
s(g1
I0
I12
tp784
I19
s(g10
I0
I20
tp785
I29
s(g4
I0
I11
tp786
I15
s(g21
I0
I5
tp787
I7
s(g31
I1
I16
tp788
I28
s(g16
I1
I19
tp789
I27
s(g4
I2
I20
tp790
I42
s(g21
I2
I10
tp791
I23
s(g8
I4
I11
tp792
I0
s(g1
I2
I10
tp793
I21
s(g4
I2
I4
tp794
I10
s(g8
I3
I20
tp795
I10
s(g10
I2
I10
tp796
I27
s(g31
I3
I10
tp797
I3
s(g4
I3
I7
tp798
I3
s(g1
I3
I5
tp799
I4
s(g6
I1
I15
tp800
I26
s(g6
I0
I19
tp801
I18
s(g8
I1
I15
tp802
I22
s(g10
I4
I7
tp803
I0
s(g14
I0
I14
tp804
I21
s(g16
I0
I8
tp805
I18
s(g4
I3
I17
tp806
I12
s(g12
I2
I2
tp807
I2
s(g10
I0
I12
tp808
I20
s(g4
I0
I3
tp809
I5
s(g21
I1
I19
tp810
I32
s(g6
I3
I17
tp811
I7
s(g6
I4
I11
tp812
I0
s(g4
I2
I2
tp813
I7
s(g12
I1
I19
tp814
I27
s(g21
I4
I2
tp815
I0
s(g10
I1
I3
tp816
I7
s(g16
I2
I14
tp817
I28
s(g21
I2
I2
tp818
I5
s(g8
I4
I19
tp819
I0
s(g1
I2
I2
tp820
I6
s(g31
I4
I9
tp821
I0
s(g6
I2
I6
tp822
I25
s(g1
I4
I2
tp823
I0
s(g8
I0
I4
tp824
I4
s(g10
I2
I18
tp825
I36
s(g31
I3
I2
tp826
I0
s(g16
I3
I1
tp827
I2
s(g12
I3
I13
tp828
I14
s(g1
I3
I13
tp829
I12
s(g8
I0
I12
tp830
I17
s(g6
I1
I2
tp831
I4
s(g10
I4
I15
tp832
I0
s(g31
I1
I9
tp833
I19
s(g31
I0
I19
tp834
I22
s(g16
I0
I16
tp835
I26
s(g1
I1
I4
tp836
I13
s(g12
I4
I18
tp837
I0
s(g10
I0
I4
tp838
I7
s(g14
I4
I17
tp839
I0
s(g21
I1
I11
tp840
I23
s(g14
I2
I13
tp841
I33
s(g12
I0
I8
tp842
I13
s(g12
I0
I1
tp843
I0
s(g21
I4
I10
tp844
I0
s(g10
I1
I11
tp845
I20
s(g31
I2
I5
tp846
I15
s(g16
I2
I6
tp847
I14
s(g21
I3
I14
tp848
I6
s(g31
I4
I1
tp849
I0
s(g16
I4
I6
tp850
I0
s(g6
I2
I14
tp851
I41
s(g12
I3
I5
tp852
I4
s(g1
I4
I10
tp853
I0
s(g14
I0
I20
tp854
I23
s(g10
I3
I6
tp855
I2
s(g14
I1
I9
tp856
I15
s(g16
I3
I9
tp857
I9
s(g14
I3
I18
tp858
I9
s(g6
I4
I1
tp859
I0
s(g21
I0
I20
tp860
I22
s(g4
I2
I13
tp861
I32
s(g31
I1
I1
tp862
I5
s(g16
I1
I0
tp863
I1
s(g12
I1
I10
tp864
I17
s(g1
I1
I12
tp865
I27
s(g8
I2
I10
tp866
I30
s(g14
I4
I9
tp867
I0
s(g21
I1
I3
tp868
I6
s(g14
I2
I5
tp869
I10
s(g6
I3
I1
tp870
I1
s(g4
I4
I0
tp871
I0
s(g8
I3
I5
tp872
I2
s(g10
I1
I19
tp873
I26
s(g31
I2
I13
tp874
I37
s(g21
I3
I6
tp875
I2
s(g6
I0
I5
tp876
I3
s(g12
I4
I12
tp877
I0
s(g1
I2
I18
tp878
I34
s(g16
I4
I14
tp879
I0
s(g8
I0
I20
tp880
I21
s(g10
I3
I14
tp881
I8
s(g31
I0
I10
tp882
I18
s(g31
I3
I18
tp883
I5
s(g16
I3
I17
tp884
I15
s(g1
I0
I7
tp885
I9
s(g6
I0
I13
tp886
I14
s(g4
I0
I18
tp887
I23
s(g21
I0
I12
tp888
I16
s(g14
I3
I14
tp889
I8
s(g16
I1
I8
tp890
I23
s(g4
I3
I13
tp891
I10
s(g21
I4
I17
tp892
I0
s(g8
I2
I2
tp893
I3
s(g12
I0
I9
tp894
I14
s(g14
I4
I1
tp895
I0
s(g21
I2
I13
tp896
I31
s(g8
I4
I2
tp897
I0
s(g6
I3
I9
tp898
I6
s(g12
I2
I18
tp899
I30
s(g4
I4
I8
tp900
I0
s(g14
I3
I5
tp901
I3
s(g10
I2
I5
tp902
I15
s(g4
I3
I12
tp903
I8
s(g12
I4
I4
tp904
I0
s(g31
I4
I17
tp905
I0
s(g14
I1
I18
tp906
I30
s(g6
I2
I11
tp907
I39
s(g8
I1
I4
tp908
I4
s(g31
I0
I2
tp909
I7
s(g16
I0
I3
tp910
I8
s(g12
I2
I11
tp911
I19
s(g1
I0
I15
tp912
I19
s(g6
I1
I1
tp913
I1
s(g10
I0
I19
tp914
I27
s(g4
I1
I13
tp915
I20
s(g4
I0
I10
tp916
I13
s(g21
I1
I20
tp917
I33
s(g21
I0
I4
tp918
I7
s(g31
I1
I17
tp919
I29
s(g16
I1
I16
tp920
I26
s(g12
I0
I14
tp921
I21
s(g21
I2
I5
tp922
I15
s(g8
I4
I10
tp923
I0
s(g1
I2
I9
tp924
I19
s(g1
I4
I5
tp925
I0
s(g10
I2
I13
tp926
I33
s(g31
I3
I11
tp927
I3
s(g4
I3
I4
tp928
I2
s(g4
I1
I2
tp929
I4
s(g1
I3
I6
tp930
I5
s(g6
I0
I18
tp931
I18
s(g10
I4
I20
tp932
I0
s(g8
I1
I12
tp933
I19
s(g14
I0
I16
tp934
I22
s(g14
I0
I15
tp935
I21
s(g16
I0
I11
tp936
I26
s(g12
I2
I3
tp937
I6
s(g10
I0
I11
tp938
I19
s(g4
I0
I2
tp939
I3
s(g21
I1
I12
tp940
I25
s(g6
I0
I1
tp941
I1
s(g4
I2
I9
tp942
I21
s(g14
I2
I18
tp943
I36
s(g6
I3
I16
tp944
I7
s(g6
I4
I8
tp945
I0
s(g12
I0
I6
tp946
I8
s(g10
I4
I8
tp947
I0
s(g21
I4
I1
tp948
I0
s(g10
I1
I4
tp949
I9
s(g4
I1
I4
tp950
I6
s(g16
I2
I13
tp951
I28
s(g12
I3
I20
tp952
I16
s(g1
I2
I1
tp953
I3
s(g31
I4
I8
tp954
I0
s(g14
I0
I5
tp955
I9
s(g1
I4
I13
tp956
I0
s(g8
I0
I7
tp957
I6
s(g31
I3
I3
tp958
I0
s(g16
I3
I2
tp959
I4
s(g4
I3
I20
tp960
I12
s(g12
I3
I12
tp961
I14
s(g1
I3
I14
tp962
I13
s(g21
I0
I19
tp963
I22
s(g8
I1
I20
tp964
I26
s(g10
I4
I14
tp965
I0
s(g31
I1
I14
tp966
I26
s(g31
I0
I18
tp967
I21
s(g16
I0
I19
tp968
I28
s(g12
I1
I13
tp969
I21
s(g1
I1
I5
tp970
I14
s(g8
I2
I17
tp971
I42
s(g10
I0
I3
tp972
I6
s(g14
I4
I18
tp973
I0
s(g6
I4
I20
tp974
I0
s(g21
I1
I4
tp975
I9
s(g14
I2
I10
tp976
I27
s(g4
I4
I7
tp977
I0
s(g4
I3
I9
tp978
I3
s(g21
I4
I9
tp979
I0
s(g10
I1
I12
tp980
I22
s(g31
I2
I4
tp981
I13
s(g16
I2
I5
tp982
I9
s(g21
I3
I15
tp983
I7
s(g31
I4
I0
tp984
I0
s(g16
I4
I1
tp985
I0
s(g6
I2
I15
tp986
I42
s(g8
I0
I15
tp987
I20
s(g10
I3
I7
tp988
I2
s(g14
I1
I8
tp989
I11
s(g16
I3
I10
tp990
I11
s(g12
I3
I4
tp991
I3
s(g6
I0
I2
tp992
I1
s(g21
I0
I11
tp993
I14
s(g31
I1
I6
tp994
I13
s(g16
I1
I1
tp995
I4
s(g12
I1
I5
tp996
I9
s(g1
I1
I13
tp997
I27
s(g8
I2
I9
tp998
I27
s(g4
I1
I5
tp999
I8
s(g4
I1
I9
tp1000
I15
s(g14
I4
I10
tp1001
I0
s(g21
I2
I20
tp1002
I37
s(g8
I4
I5
tp1003
I0
s(g14
I2
I2
tp1004
I3
s(g6
I3
I0
tp1005
I0
s(g1
I4
I20
tp1006
I0
s(g4
I4
I15
tp1007
I0
s(g8
I3
I6
tp1008
I5
s(g10
I1
I20
tp1009
I26
s(g31
I2
I12
tp1010
I36
s(g14
I1
I1
tp1011
I0
s(g12
I4
I13
tp1012
I0
s(g1
I2
I17
tp1013
I34
s(g16
I4
I9
tp1014
I0
s(g8
I1
I9
tp1015
I12
s(g10
I3
I15
tp1016
I8
s(g31
I0
I13
tp1017
I21
s(g14
I1
I0
tp1018
I0
s(g16
I3
I18
tp1019
I15
s(g1
I1
I18
tp1020
I31
s(g1
I0
I6
tp1021
I7
s(g6
I0
I10
tp1022
I11
s(g4
I0
I17
tp1023
I22
s(g21
I0
I3
tp1024
I5
s(g14
I3
I9
tp1025
I7
s(g16
I1
I9
tp1026
I23
s(g21
I4
I16
tp1027
I0
s(g8
I2
I1
tp1028
I3
s(g14
I4
I2
tp1029
I0
s(g21
I2
I12
tp1030
I30
s(g8
I4
I13
tp1031
I0
s(g4
I2
I5
tp1032
I14
s(g6
I2
I16
tp1033
I43
s(g6
I3
I8
tp1034
I6
s(g8
I3
I14
tp1035
I9
s(g10
I2
I4
tp1036
I13
s(g31
I2
I20
tp1037
I43
s(g12
I4
I5
tp1038
I0
s(g31
I4
I16
tp1039
I0
s(g16
I4
I17
tp1040
I0
s(g31
I0
I20
tp1041
I22
s(g8
I1
I5
tp1042
I5
s(g31
I0
I5
tp1043
I9
s(g16
I0
I2
tp1044
I8
s(g4
I3
I16
tp1045
I12
s(g12
I2
I4
tp1046
I8
s(g1
I0
I14
tp1047
I19
s(g10
I0
I18
tp1048
I27
s(g4
I0
I9
tp1049
I9
s(g14
I3
I1
tp1050
I0
s(g16
I1
I17
tp1051
I27
s(g12
I0
I15
tp1052
I21
s(g16
I2
I20
tp1053
I29
s(g21
I2
I4
tp1054
I10
s(g1
I2
I8
tp1055
I17
s(g1
I4
I4
tp1056
I0
s(g8
I2
I12
tp1057
I32
s(g10
I2
I12
tp1058
I32
s(g31
I3
I12
tp1059
I3
s(g4
I3
I5
tp1060
I2
s.