(dp0
(S'Ten Forward'
p1
I6
tp2
I9
s(S'myBar'
p3
I2
tp4
I2
s(g3
I13
tp5
I4
s(S'Dada'
p6
I7
tp7
I5
s(S"Sister Louisa's Church"
p8
I18
tp9
I2
s(S'Mos Eisley Cantina'
p10
I19
tp11
I3
s(S'Trees'
p12
I12
tp13
I2
s(g8
I1
tp14
I6
s(S'Foo Bar'
p15
I13
tp16
I6
s(g6
I19
tp17
I2
s(g10
I6
tp18
I6
s(g12
I3
tp19
I5
s(g6
I17
tp20
I4
s(g15
I0
tp21
I7
s(S'new Bar'
p22
I7
tp23
I10
s(S"Taffey's Snake Pit Bar"
p24
I2
tp25
I5
s(g24
I15
tp26
I2
s(g1
I9
tp27
I2
s(g3
I7
tp28
I7
s(g3
I18
tp29
I1
s(g6
I4
tp30
I7
s(g8
I15
tp31
I3
s(g12
I9
tp32
I6
s(g8
I2
tp33
I1
s(g15
I10
tp34
I1
s(g22
I13
tp35
I3
s(g10
I3
tp36
I4
s(g1
I18
tp37
I2
s(g22
I0
tp38
I5
s(g24
I1
tp39
I2
s(S'this.bar'
p40
I4
tp41
I3
s(g24
I18
tp42
I1
s(g1
I12
tp43
I8
s(g6
I20
tp44
I2
s(g40
I14
tp45
I5
s(g6
I9
tp46
I5
s(g8
I8
tp47
I7
s(g15
I20
tp48
I2
s(g12
I10
tp49
I10
s(g15
I7
tp50
I6
s(g22
I14
tp51
I6
s(g10
I12
tp52
I6
s(g24
I4
tp53
I2
s(g40
I5
tp54
I2
s(g1
I2
tp55
I4
s(g22
I16
tp56
I1
s(g24
I17
tp57
I4
s(g1
I15
tp58
I4
s(g3
I9
tp59
I6
s(g6
I3
tp60
I7
s(g3
I20
tp61
I1
s(g12
I16
tp62
I2
s(g8
I5
tp63
I8
s(g15
I17
tp64
I3
s(g12
I7
tp65
I9
s(g15
I4
tp66
I8
s(g22
I11
tp67
I4
s(g10
I9
tp68
I11
s(g24
I11
tp69
I11
s(g1
I5
tp70
I5
s(g3
I3
tp71
I3
s(g24
I20
tp72
I1
s(g40
I12
tp73
I7
s(g6
I18
tp74
I2
s(g3
I14
tp75
I2
s(g6
I0
tp76
I6
s(g8
I19
tp77
I1
s(g40
I7
tp78
I7
s(g10
I16
tp79
I3
s(g12
I13
tp80
I4
s(g8
I6
tp81
I6
s(g15
I14
tp82
I4
s(g3
I4
tp83
I5
s(g10
I7
tp84
I4
s(g12
I0
tp85
I3
s(g15
I1
tp86
I5
s(g22
I4
tp87
I5
s(g10
I10
tp88
I9
s(g24
I14
tp89
I3
s(g1
I8
tp90
I12
s(g3
I0
tp91
I5
s(g6
I15
tp92
I3
s(g3
I19
tp93
I1
s(g6
I5
tp94
I7
s(g8
I12
tp95
I3
s(g40
I3
tp96
I8
s(g12
I14
tp97
I2
s(g8
I3
tp98
I7
s(g15
I11
tp99
I7
s(g10
I0
tp100
I8
s(g40
I11
tp101
I4
s(g1
I17
tp102
I3
s(g22
I1
tp103
I5
s(g24
I0
tp104
I3
s(g22
I20
tp105
I0
s(g24
I13
tp106
I3
s(g1
I11
tp107
I7
s(g3
I5
tp108
I6
s(g40
I8
tp109
I5
s(g3
I16
tp110
I5
s(g12
I20
tp111
I1
s(g8
I9
tp112
I9
s(g12
I11
tp113
I3
s(g15
I8
tp114
I9
s(g22
I15
tp115
I5
s(g10
I13
tp116
I5
s(g1
I20
tp117
I1
s(g22
I2
tp118
I10
s(g24
I7
tp119
I7
s(g1
I1
tp120
I2
s(g22
I17
tp121
I4
s(g24
I16
tp122
I1
s(g1
I3
tp123
I10
s(g1
I14
tp124
I3
s(g3
I10
tp125
I12
s(g6
I14
tp126
I3
s(g10
I20
tp127
I0
s(g12
I17
tp128
I1
s(g8
I10
tp129
I6
s(g15
I18
tp130
I1
s(g12
I4
tp131
I8
s(g15
I5
tp132
I7
s(g22
I8
tp133
I7
s(g40
I13
tp134
I5
s(g10
I14
tp135
I1
s(g40
I15
tp136
I4
s(g40
I6
tp137
I11
s(g24
I10
tp138
I6
s(g1
I4
tp139
I4
s(g22
I18
tp140
I0
s(g40
I17
tp141
I4
s(g3
I15
tp142
I4
s(g6
I1
tp143
I5
s(g8
I16
tp144
I1
s(g40
I9
tp145
I4
s(g40
I18
tp146
I1
s(g10
I17
tp147
I3
s(g12
I18
tp148
I2
s(g8
I7
tp149
I11
s(g15
I15
tp150
I2
s(g10
I4
tp151
I3
s(g12
I1
tp152
I11
s(g15
I2
tp153
I7
s(g22
I5
tp154
I3
s(g10
I11
tp155
I7
s(g24
I9
tp156
I5
s(g40
I2
tp157
I7
s(g1
I7
tp158
I6
s(g3
I1
tp159
I8
s(g3
I12
tp160
I5
s(g6
I6
tp161
I6
s(g8
I13
tp162
I7
s(g6
I13
tp163
I5
s(g10
I18
tp164
I1
s(g12
I15
tp165
I0
s(g8
I0
tp166
I2
s(g15
I12
tp167
I6
s(g10
I1
tp168
I6
s(g12
I2
tp169
I6
s(g1
I16
tp170
I5
s(g22
I6
tp171
I5
s(g24
I3
tp172
I8
s(g40
I0
tp173
I1
s(g24
I12
tp174
I7
s(g1
I10
tp175
I3
s(g3
I6
tp176
I4
s(g6
I16
tp177
I2
s(g3
I17
tp178
I6
s(g6
I11
tp179
I9
s(g8
I14
tp180
I6
s(g40
I10
tp181
I9
s(g40
I19
tp182
I1
s(g12
I8
tp183
I9
s(g15
I9
tp184
I12
s(g22
I12
tp185
I3
s(g10
I2
tp186
I9
s(g1
I19
tp187
I2
s(g22
I3
tp188
I7
s(g24
I6
tp189
I14
s(g1
I0
tp190
I4
s(g24
I19
tp191
I2
s(g1
I13
tp192
I4
s(g3
I11
tp193
I11
s(g8
I20
tp194
I3
s(g6
I8
tp195
I6
s(g8
I11
tp196
I6
s(g15
I19
tp197
I1
s(g6
I12
tp198
I6
s(g12
I5
tp199
I7
s(g40
I16
tp200
I2
s(g15
I6
tp201
I1
s(g22
I9
tp202
I10
s(g10
I15
tp203
I1
s(g40
I1
tp204
I10
s(g24
I5
tp205
I7
s(g6
I10
tp206
I6
s(g22
I19
tp207
I0
s(g3
I8
tp208
I2
s(g6
I2
tp209
I2
s(g8
I17
tp210
I2
s(g12
I19
tp211
I0
s(g8
I4
tp212
I3
s(g15
I16
tp213
I1
s(g40
I20
tp214
I0
s(g10
I5
tp215
I6
s(g12
I6
tp216
I9
s(g15
I3
tp217
I4
s(g22
I10
tp218
I7
s(g10
I8
tp219
I4
s(g24
I8
tp220
I6
s.