(dp0
(S'new Bar'
p1
I00
I17
tp2
I56
s(S'this.bar'
p3
I00
I19
tp4
I53
s(g3
I01
I9
tp5
I28
s(S"Sister Louisa's Church"
p6
I01
I13
tp7
I40
s(S"Taffey's Snake Pit Bar"
p8
I00
I8
tp9
I31
s(S'Trees'
p10
I00
I10
tp11
I39
s(g1
I01
I2
tp12
I12
s(S'Foo Bar'
p13
I00
I10
tp14
I34
s(S'myBar'
p15
I00
I1
tp16
I8
s(S'Dada'
p17
I01
I13
tp18
I32
s(S'Ten Forward'
p19
I00
I7
tp20
I20
s(g13
I01
I5
tp21
I18
s(g6
I00
I6
tp22
I15
s(g17
I00
I18
tp23
I61
s(S'Mos Eisley Cantina'
p24
I01
I15
tp25
I47
s(g8
I00
I0
tp26
I3
s(g10
I00
I18
tp27
I47
s(g19
I01
I12
tp28
I35
s(g1
I01
I10
tp29
I33
s(g13
I00
I2
tp30
I11
s(g17
I01
I5
tp31
I16
s(g13
I01
I13
tp32
I43
s(g3
I01
I16
tp33
I43
s(g6
I00
I14
tp34
I46
s(g8
I01
I15
tp35
I39
s(g1
I00
I1
tp36
I2
s(g3
I00
I3
tp37
I14
s(g17
I00
I10
tp38
I41
s(g24
I01
I7
tp39
I22
s(g10
I01
I6
tp40
I22
s(g19
I01
I4
tp41
I13
s(g15
I01
I15
tp42
I42
s(g6
I01
I2
tp43
I5
s(g24
I00
I12
tp44
I39
s(g8
I01
I7
tp45
I21
s(g1
I01
I19
tp46
I44
s(g1
I00
I9
tp47
I37
s(g3
I00
I11
tp48
I36
s(g15
I00
I16
tp49
I46
s(g17
I00
I2
tp50
I7
s(g10
I01
I14
tp51
I49
s(g15
I01
I7
tp52
I19
s(g3
I01
I0
tp53
I1
s(g6
I01
I10
tp54
I31
s(g8
I00
I17
tp55
I55
s(g10
I00
I5
tp56
I22
s(g13
I00
I17
tp57
I49
s(g15
I00
I8
tp58
I22
s(g19
I00
I12
tp59
I41
s(g19
I01
I20
tp60
I44
s(g8
I00
I4
tp61
I12
s(g6
I00
I1
tp62
I4
s(g1
I00
I16
tp63
I53
s(g3
I00
I16
tp64
I51
s(g3
I01
I8
tp65
I27
s(g6
I01
I18
tp66
I45
s(g8
I00
I9
tp67
I35
s(g10
I00
I13
tp68
I44
s(g1
I01
I3
tp69
I16
s(g13
I00
I9
tp70
I33
s(g15
I00
I0
tp71
I4
s(g17
I01
I14
tp72
I32
s(g19
I00
I4
tp73
I11
s(g13
I01
I6
tp74
I19
s(g6
I00
I9
tp75
I32
s(g17
I00
I17
tp76
I60
s(g24
I01
I12
tp77
I44
s(g24
I00
I20
tp78
I48
s(g19
I01
I15
tp79
I40
s(g1
I01
I11
tp80
I34
s(g13
I00
I1
tp81
I7
s(g15
I01
I16
tp82
I45
s(g17
I01
I6
tp83
I17
s(g13
I01
I14
tp84
I44
s(g3
I01
I19
tp85
I47
s(g6
I00
I17
tp86
I50
s(g8
I01
I14
tp87
I37
s(g1
I00
I0
tp88
I0
s(g3
I00
I0
tp89
I0
s(g17
I00
I9
tp90
I37
s(g8
I00
I19
tp91
I56
s(g24
I01
I4
tp92
I18
s(g10
I01
I7
tp93
I28
s(g19
I01
I7
tp94
I24
s(g15
I01
I8
tp95
I20
s(g19
I00
I20
tp96
I56
s(g6
I01
I3
tp97
I7
s(g24
I00
I15
tp98
I43
s(g8
I01
I6
tp99
I18
s(g1
I01
I16
tp100
I43
s(g1
I00
I8
tp101
I31
s(g3
I00
I8
tp102
I27
s(g17
I00
I1
tp103
I5
s(g10
I01
I15
tp104
I49
s(g15
I01
I0
tp105
I1
s(g3
I01
I3
tp106
I12
s(g6
I01
I11
tp107
I34
s(g8
I00
I18
tp108
I55
s(g10
I00
I4
tp109
I17
s(g13
I00
I16
tp110
I47
s(g15
I00
I15
tp111
I44
s(g24
I01
I20
tp112
I52
s(g19
I00
I13
tp113
I44
s(g6
I00
I0
tp114
I1
s(g1
I00
I19
tp115
I56
s(g3
I00
I17
tp116
I52
s(g3
I01
I11
tp117
I35
s(g6
I01
I19
tp118
I45
s(g8
I00
I10
tp119
I37
s(g10
I00
I12
tp120
I42
s(g1
I01
I0
tp121
I5
s(g13
I00
I8
tp122
I26
s(g15
I00
I7
tp123
I21
s(g17
I01
I15
tp124
I33
s(g19
I00
I5
tp125
I13
s(g13
I01
I7
tp126
I24
s(g6
I00
I8
tp127
I27
s(g17
I00
I16
tp128
I57
s(g24
I01
I13
tp129
I46
s(g8
I00
I2
tp130
I7
s(g10
I00
I20
tp131
I47
s(g19
I01
I14
tp132
I38
s(g1
I01
I8
tp133
I26
s(g13
I00
I0
tp134
I3
s(g15
I01
I17
tp135
I47
s(g17
I01
I7
tp136
I18
s(g13
I01
I15
tp137
I45
s(g3
I01
I18
tp138
I46
s(g6
I00
I16
tp139
I48
s(g8
I01
I13
tp140
I36
s(g1
I00
I3
tp141
I11
s(g3
I00
I1
tp142
I6
s(g17
I00
I8
tp143
I32
s(g24
I01
I5
tp144
I19
s(g10
I01
I4
tp145
I16
s(g19
I01
I6
tp146
I20
s(g15
I01
I9
tp147
I23
s(g6
I01
I0
tp148
I1
s(g24
I00
I14
tp149
I42
s(g8
I01
I5
tp150
I13
s(g1
I01
I17
tp151
I44
s(g1
I00
I11
tp152
I44
s(g3
I00
I9
tp153
I30
s(g17
I00
I0
tp154
I3
s(g10
I01
I12
tp155
I46
s(g15
I01
I1
tp156
I5
s(g3
I01
I2
tp157
I8
s(g6
I01
I8
tp158
I24
s(g24
I00
I6
tp159
I22
s(g10
I00
I7
tp160
I30
s(g13
I00
I15
tp161
I47
s(g15
I00
I14
tp162
I42
s(g17
I01
I16
tp163
I33
s(g10
I01
I20
tp164
I53
s(g19
I00
I10
tp165
I30
s(g13
I01
I0
tp166
I4
s(g6
I00
I3
tp167
I9
s(g1
I00
I18
tp168
I56
s(g3
I01
I10
tp169
I32
s(g6
I01
I16
tp170
I44
s(g24
I01
I10
tp171
I38
s(g8
I00
I11
tp172
I46
s(g10
I00
I15
tp173
I45
s(g1
I01
I1
tp174
I8
s(g13
I00
I7
tp175
I21
s(g15
I00
I6
tp176
I18
s(g17
I01
I8
tp177
I19
s(g19
I00
I2
tp178
I6
s(g13
I01
I8
tp179
I28
s(g6
I00
I11
tp180
I38
s(g8
I01
I20
tp181
I43
s(g3
I00
I6
tp182
I21
s(g24
I00
I7
tp183
I24
s(g24
I01
I2
tp184
I14
s(g8
I00
I3
tp185
I12
s(g19
I01
I9
tp186
I30
s(g1
I01
I9
tp187
I30
s(g15
I01
I18
tp188
I47
s(g17
I01
I0
tp189
I3
s(g13
I01
I16
tp190
I46
s(g24
I00
I18
tp191
I48
s(g6
I00
I19
tp192
I52
s(g24
I00
I9
tp193
I28
s(g8
I01
I12
tp194
I35
s(g1
I00
I2
tp195
I8
s(g3
I00
I14
tp196
I48
s(g17
I00
I15
tp197
I55
s(g10
I01
I5
tp198
I18
s(g19
I01
I1
tp199
I2
s(g15
I01
I10
tp200
I29
s(g19
I00
I18
tp201
I54
s(g3
I01
I5
tp202
I16
s(g6
I01
I1
tp203
I4
s(g8
I00
I20
tp204
I57
s(g8
I01
I4
tp205
I8
s(g1
I00
I10
tp206
I41
s(g17
I00
I7
tp207
I27
s(g24
I01
I18
tp208
I49
s(g10
I01
I13
tp209
I48
s(g15
I01
I2
tp210
I6
s(g3
I01
I13
tp211
I38
s(g6
I01
I9
tp212
I28
s(g8
I00
I12
tp213
I48
s(g10
I00
I6
tp214
I27
s(g13
I00
I14
tp215
I46
s(g15
I00
I13
tp216
I42
s(g17
I01
I17
tp217
I34
s(g19
I00
I11
tp218
I34
s(g19
I01
I17
tp219
I42
s(g13
I01
I1
tp220
I5
s(g6
I00
I2
tp221
I4
s(g8
I01
I19
tp222
I43
s(g6
I01
I17
tp223
I44
s(g24
I01
I11
tp224
I41
s(g24
I00
I17
tp225
I47
s(g10
I00
I14
tp226
I45
s(g1
I01
I6
tp227
I23
s(g13
I00
I6
tp228
I20
s(g15
I00
I5
tp229
I16
s(g17
I01
I9
tp230
I19
s(g19
I00
I3
tp231
I9
s(g13
I01
I9
tp232
I33
s(g3
I01
I20
tp233
I47
s(g6
I00
I10
tp234
I35
s(g8
I01
I11
tp235
I30
s(g3
I00
I7
tp236
I24
s(g24
I01
I3
tp237
I17
s(g10
I01
I2
tp238
I9
s(g19
I01
I8
tp239
I29
s(g1
I01
I14
tp240
I41
s(g15
I01
I19
tp241
I48
s(g17
I01
I1
tp242
I6
s(g13
I01
I17
tp243
I47
s(g6
I00
I18
tp244
I51
s(g24
I00
I8
tp245
I25
s(g8
I01
I3
tp246
I6
s(g1
I00
I5
tp247
I15
s(g3
I00
I15
tp248
I50
s(g17
I00
I14
tp249
I53
s(g10
I01
I10
tp250
I44
s(g19
I01
I0
tp251
I1
s(g15
I01
I11
tp252
I33
s(g19
I00
I19
tp253
I55
s(g3
I01
I4
tp254
I14
s(g6
I01
I6
tp255
I18
s(g24
I00
I0
tp256
I3
s(g10
I00
I1
tp257
I7
s(g1
I00
I13
tp258
I46
s(g15
I00
I20
tp259
I52
s(g17
I00
I6
tp260
I23
s(g24
I01
I19
tp261
I52
s(g10
I01
I18
tp262
I52
s(g15
I01
I3
tp263
I8
s(g3
I00
I20
tp264
I53
s(g3
I01
I12
tp265
I38
s(g6
I01
I14
tp266
I42
s(g8
I00
I13
tp267
I50
s(g10
I00
I9
tp268
I35
s(g13
I00
I13
tp269
I43
s(g15
I00
I12
tp270
I41
s(g17
I01
I18
tp271
I35
s(g19
I00
I8
tp272
I27
s(g19
I01
I16
tp273
I42
s(g13
I01
I2
tp274
I8
s(g6
I00
I5
tp275
I13
s(g8
I01
I18
tp276
I42
s(g1
I00
I20
tp277
I56
s(g24
I00
I4
tp278
I12
s(g24
I01
I8
tp279
I25
s(g24
I00
I16
tp280
I46
s(g10
I00
I17
tp281
I47
s(g1
I01
I7
tp282
I24
s(g13
I00
I5
tp283
I20
s(g15
I01
I20
tp284
I48
s(g15
I00
I4
tp285
I13
s(g17
I01
I10
tp286
I21
s(g19
I00
I0
tp287
I3
s(g13
I01
I10
tp288
I33
s(g24
I00
I19
tp289
I48
s(g6
I00
I13
tp290
I42
s(g8
I01
I10
tp291
I28
s(g3
I00
I4
tp292
I15
s(g24
I01
I0
tp293
I5
s(g10
I01
I3
tp294
I13
s(g19
I01
I11
tp295
I34
s(g1
I01
I15
tp296
I43
s(g15
I01
I12
tp297
I35
s(g17
I01
I2
tp298
I6
s(g13
I01
I18
tp299
I47
s(g24
I00
I11
tp300
I36
s(g8
I01
I2
tp301
I3
s(g1
I00
I4
tp302
I13
s(g3
I00
I12
tp303
I40
s(g15
I00
I19
tp304
I51
s(g17
I00
I13
tp305
I50
s(g10
I01
I11
tp306
I46
s(g19
I01
I3
tp307
I11
s(g15
I01
I4
tp308
I10
s(g19
I00
I16
tp309
I50
s(g3
I01
I7
tp310
I25
s(g6
I01
I7
tp311
I21
s(g24
I00
I3
tp312
I10
s(g10
I00
I0
tp313
I1
s(g1
I01
I20
tp314
I44
s(g1
I00
I12
tp315
I45
s(g13
I00
I20
tp316
I53
s(g15
I00
I11
tp317
I38
s(g17
I00
I5
tp318
I18
s(g24
I01
I16
tp319
I47
s(g10
I01
I19
tp320
I52
s(g3
I01
I15
tp321
I42
s(g6
I01
I15
tp322
I44
s(g8
I00
I14
tp323
I52
s(g10
I00
I8
tp324
I33
s(g13
I00
I12
tp325
I39
s(g15
I00
I3
tp326
I10
s(g17
I01
I19
tp327
I37
s(g19
I00
I9
tp328
I28
s(g19
I01
I19
tp329
I44
s(g13
I01
I3
tp330
I10
s(g6
I00
I4
tp331
I10
s(g8
I01
I17
tp332
I41
s(g6
I00
I12
tp333
I39
s(g24
I01
I9
tp334
I33
s(g8
I00
I6
tp335
I23
s(g10
I00
I16
tp336
I46
s(g1
I01
I4
tp337
I19
s(g13
I00
I4
tp338
I14
s(g17
I01
I11
tp339
I26
s(g19
I00
I1
tp340
I4
s(g13
I01
I11
tp341
I37
s(g24
I00
I1
tp342
I5
s(g8
I01
I9
tp343
I24
s(g3
I00
I5
tp344
I15
s(g17
I00
I20
tp345
I63
s(g24
I01
I1
tp346
I9
s(g10
I01
I0
tp347
I2
s(g19
I01
I10
tp348
I31
s(g1
I01
I12
tp349
I36
s(g15
I01
I13
tp350
I38
s(g17
I01
I3
tp351
I8
s(g13
I01
I19
tp352
I47
s(g6
I00
I20
tp353
I55
s(g24
I00
I10
tp354
I32
s(g8
I01
I1
tp355
I1
s(g1
I00
I7
tp356
I26
s(g3
I00
I13
tp357
I45
s(g15
I00
I18
tp358
I51
s(g17
I00
I12
tp359
I47
s(g10
I01
I8
tp360
I34
s(g19
I01
I2
tp361
I4
s(g15
I01
I5
tp362
I13
s(g19
I00
I17
tp363
I53
s(g3
I01
I6
tp364
I21
s(g6
I01
I4
tp365
I9
s(g24
I00
I2
tp366
I9
s(g10
I00
I3
tp367
I12
s(g1
I00
I15
tp368
I52
s(g13
I00
I19
tp369
I51
s(g15
I00
I10
tp370
I31
s(g17
I01
I20
tp371
I37
s(g17
I00
I4
tp372
I14
s(g24
I01
I17
tp373
I49
s(g10
I01
I16
tp374
I50
s(g19
I00
I14
tp375
I45
s(g3
I00
I18
tp376
I53
s(g3
I01
I14
tp377
I40
s(g6
I01
I12
tp378
I36
s(g24
I00
I5
tp379
I17
s(g8
I00
I15
tp380
I52
s(g10
I00
I11
tp381
I40
s(g13
I00
I11
tp382
I37
s(g15
I00
I2
tp383
I9
s(g17
I01
I12
tp384
I30
s(g19
I00
I6
tp385
I18
s(g19
I01
I18
tp386
I43
s(g13
I01
I4
tp387
I17
s(g8
I00
I5
tp388
I14
s(g6
I00
I7
tp389
I23
s(g8
I01
I16
tp390
I40
s(g17
I00
I19
tp391
I61
s(g6
I01
I20
tp392
I45
s(g24
I01
I14
tp393
I47
s(g8
I00
I7
tp394
I27
s(g10
I00
I19
tp395
I47
s(g19
I01
I13
tp396
I36
s(g1
I01
I5
tp397
I20
s(g13
I00
I3
tp398
I13
s(g17
I01
I4
tp399
I13
s(g13
I01
I12
tp400
I41
s(g3
I01
I17
tp401
I46
s(g6
I00
I15
tp402
I47
s(g8
I01
I8
tp403
I23
s(g3
I00
I2
tp404
I10
s(g17
I00
I11
tp405
I45
s(g24
I01
I6
tp406
I20
s(g10
I01
I1
tp407
I7
s(g19
I01
I5
tp408
I16
s(g1
I01
I13
tp409
I38
s(g15
I01
I14
tp410
I40
s(g13
I01
I20
tp411
I47
s(g24
I00
I13
tp412
I42
s(g8
I01
I0
tp413
I0
s(g1
I01
I18
tp414
I44
s(g1
I00
I6
tp415
I17
s(g3
I00
I10
tp416
I35
s(g15
I00
I17
tp417
I50
s(g17
I00
I3
tp418
I12
s(g10
I01
I9
tp419
I38
s(g15
I01
I6
tp420
I15
s(g3
I01
I1
tp421
I5
s(g8
I00
I1
tp422
I4
s(g6
I01
I5
tp423
I14
s(g8
I00
I16
tp424
I52
s(g10
I00
I2
tp425
I11
s(g1
I00
I14
tp426
I49
s(g13
I00
I18
tp427
I50
s(g15
I00
I9
tp428
I25
s(g10
I01
I17
tp429
I50
s(g19
I00
I15
tp430
I47
s.